; Function Attrs: nounwind uwtable
define nonnull ptr @l_Array_anyMUnsafe_any___at___private_Lean_Elab_Declaration_0__Lean_Elab_Command_isMutualDef___spec__1___boxed(ptr noundef %0, ptr noundef %1, ptr noundef %2) local_unnamed_addr #0 {
  %4 = getelementptr i8, ptr %1, i64 8
  %.val = load i64, ptr %4, align 8, !tbaa !12
  %5 = ptrtoint ptr %1 to i64
  %6 = and i64 %5, 1
  %.not = icmp eq i64 %6, 0
  br i1 %.not, label %7, label %lean_dec.exit10

7:                                                ; preds = %3
  %8 = load i32, ptr %1, align 4, !tbaa !4
  %9 = icmp sgt i32 %8, 1
  br i1 %9, label %10, label %12, !prof !11

10:                                               ; preds = %7
  %11 = add nsw i32 %8, -1
  store i32 %11, ptr %1, align 4, !tbaa !4
  br label %lean_dec.exit10

12:                                               ; preds = %7
  %.not.i = icmp eq i32 %8, 0
  br i1 %.not.i, label %lean_dec.exit10, label %13

13:                                               ; preds = %12
  tail call void @lean_dec_ref_cold(ptr noundef nonnull %1) #6
  br label %lean_dec.exit10

lean_dec.exit10:                                  ; preds = %13, %12, %10, %3
  %14 = getelementptr i8, ptr %2, i64 8
  %.val15 = load i64, ptr %14, align 8, !tbaa !12
  %15 = ptrtoint ptr %2 to i64
  %16 = and i64 %15, 1
  %.not16 = icmp eq i64 %16, 0
  br i1 %.not16, label %17, label %lean_dec.exit9

17:                                               ; preds = %lean_dec.exit10
  %18 = load i32, ptr %2, align 4, !tbaa !4
  %19 = icmp sgt i32 %18, 1
  br i1 %19, label %20, label %22, !prof !11

20:                                               ; preds = %17
  %21 = add nsw i32 %18, -1
  store i32 %21, ptr %2, align 4, !tbaa !4
  br label %lean_dec.exit9

22:                                               ; preds = %17
  %.not.i11 = icmp eq i32 %18, 0
  br i1 %.not.i11, label %lean_dec.exit9, label %23

23:                                               ; preds = %22
  tail call void @lean_dec_ref_cold(ptr noundef nonnull %2) #6
  br label %lean_dec.exit9

lean_dec.exit9:                                   ; preds = %23, %22, %20, %lean_dec.exit10
  %24 = tail call zeroext i8 @l_Array_anyMUnsafe_any___at___private_Lean_Elab_Declaration_0__Lean_Elab_Command_isMutualDef___spec__1(ptr noundef %0, i64 noundef %.val, i64 noundef %.val15)
  %25 = ptrtoint ptr %0 to i64
  %26 = and i64 %25, 1
  %.not17 = icmp eq i64 %26, 0
  br i1 %.not17, label %27, label %lean_dec.exit

27:                                               ; preds = %lean_dec.exit9
  %28 = load i32, ptr %0, align 4, !tbaa !4
  %29 = icmp sgt i32 %28, 1
  br i1 %29, label %30, label %32, !prof !11

30:                                               ; preds = %27
  %31 = add nsw i32 %28, -1
  store i32 %31, ptr %0, align 4, !tbaa !4
  br label %lean_dec.exit

32:                                               ; preds = %27
  %.not.i13 = icmp eq i32 %28, 0
  br i1 %.not.i13, label %lean_dec.exit, label %33

33:                                               ; preds = %32
  tail call void @lean_dec_ref_cold(ptr noundef nonnull %0) #6
  br label %lean_dec.exit

lean_dec.exit:                                    ; preds = %33, %32, %30, %lean_dec.exit9
  %34 = shl nuw nsw i8 %24, 1
  %35 = or disjoint i8 %34, 1
  %36 = zext nneg i8 %35 to i64
  %37 = inttoptr i64 %36 to ptr
  ret ptr %37
}